target datalayout = "e-m:e-p270:32:32-p271:32:32-p272:64:64-i64:64-i128:128-f80:128-n8:16:32:64-S128"
target triple = "x86_64-pc-linux-gnu"

%struct.expert_field = type { i32, i32 }

@hf_r3_adc = internal global [8 x i32] zeroinitializer, align 16
@ei_r3_mfgfield_too_many_adc_values = internal global %struct.expert_field zeroinitializer, align 4
@.str.1860 = private unnamed_addr constant [29 x i8] c"%s:%u: failed assertion \22%s\22\00", align 1
@.str.1861 = private unnamed_addr constant [33 x i8] c"epan/dissectors/packet-assa_r3.c\00", align 1
@.str.1862 = private unnamed_addr constant [18 x i8] c"start_offset == 0\00", align 1
@.str.2031 = private unnamed_addr constant [14 x i8] c" (%.2f Volts)\00", align 1

; Function Attrs: null_pointer_is_valid sspstrong uwtable
define internal void @dissect_r3_upstreammfgfield_adcs(ptr noundef %0, i32 noundef %1, i32 noundef %2, ptr noundef %3, ptr noundef %4) #0 {
  %6 = alloca ptr, align 8
  %7 = alloca i32, align 4
  %8 = alloca i32, align 4
  %9 = alloca ptr, align 8
  %10 = alloca ptr, align 8
  %11 = alloca i32, align 4
  %12 = alloca i32, align 4
  %13 = alloca i32, align 4
  %14 = alloca ptr, align 8
  store ptr %0, ptr %6, align 8
  store i32 %1, ptr %7, align 4
  store i32 %2, ptr %8, align 4
  store ptr %3, ptr %9, align 8
  store ptr %4, ptr %10, align 8
  call void @llvm.lifetime.start.p0(i64 4, ptr %11) #5
  call void @llvm.lifetime.start.p0(i64 4, ptr %12) #5
  %15 = load ptr, ptr %10, align 8
  %16 = icmp ne ptr %15, null
  br i1 %16, label %18, label %17

17:                                               ; preds = %5
  store i32 1, ptr %13, align 4
  br label %65

18:                                               ; preds = %5
  %19 = load i32, ptr %7, align 4
  %20 = icmp eq i32 %19, 0
  br i1 %20, label %21, label %22

21:                                               ; preds = %18
  br label %24

22:                                               ; preds = %18
  call void (ptr, ...) @proto_report_dissector_bug(ptr noundef @.str.1860, ptr noundef @.str.1861, i32 noundef 4245, ptr noundef @.str.1862) #6
  unreachable

23:                                               ; No predecessors!
  br label %24

24:                                               ; preds = %23, %21
  %25 = load ptr, ptr %6, align 8
  %26 = call i32 @tvb_reported_length(ptr noundef %25)
  store i32 %26, ptr %11, align 4
  store i32 0, ptr %12, align 4
  br label %27

27:                                               ; preds = %53, %24
  %28 = load i32, ptr %12, align 4
  %29 = load i32, ptr %11, align 4
  %30 = icmp ult i32 %29, 8
  br i1 %30, label %31, label %33

31:                                               ; preds = %27
  %32 = load i32, ptr %11, align 4
  br label %34

33:                                               ; preds = %27
  br label %34

34:                                               ; preds = %33, %31
  %35 = phi i32 [ %32, %31 ], [ 8, %33 ]
  %36 = icmp ult i32 %28, %35
  br i1 %36, label %37, label %56

37:                                               ; preds = %34
  call void @llvm.lifetime.start.p0(i64 8, ptr %14) #5
  %38 = load ptr, ptr %10, align 8
  %39 = load i32, ptr %12, align 4
  %40 = zext i32 %39 to i64
  %41 = getelementptr [8 x i32], ptr @hf_r3_adc, i64 0, i64 %40
  %42 = load i32, ptr %41, align 4
  %43 = load ptr, ptr %6, align 8
  %44 = load i32, ptr %12, align 4
  %45 = call ptr @proto_tree_add_item(ptr noundef %38, i32 noundef %42, ptr noundef %43, i32 noundef %44, i32 noundef 1, i32 noundef -2147483648)
  store ptr %45, ptr %14, align 8
  %46 = load ptr, ptr %14, align 8
  %47 = load ptr, ptr %6, align 8
  %48 = load i32, ptr %12, align 4
  %49 = call zeroext i8 @tvb_get_uint8(ptr noundef %47, i32 noundef %48)
  %50 = uitofp i8 %49 to float
  %51 = fpext float %50 to double
  %52 = fmul double %51, 4.154000e-02
  call void (ptr, ptr, ...) @proto_item_append_text(ptr noundef %46, ptr noundef @.str.2031, double noundef %52)
  call void @llvm.lifetime.end.p0(i64 8, ptr %14) #5
  br label %53

53:                                               ; preds = %37
  %54 = load i32, ptr %12, align 4
  %55 = add i32 %54, 1
  store i32 %55, ptr %12, align 4
  br label %27, !llvm.loop !20

56:                                               ; preds = %34
  %57 = load i32, ptr %11, align 4
  %58 = icmp ugt i32 %57, 8
  br i1 %58, label %59, label %64

59:                                               ; preds = %56
  %60 = load ptr, ptr %9, align 8
  %61 = load ptr, ptr %10, align 8
  %62 = call ptr @proto_tree_get_parent(ptr noundef %61)
  %63 = call ptr @expert_add_info(ptr noundef %60, ptr noundef %62, ptr noundef @ei_r3_mfgfield_too_many_adc_values)
  br label %64

64:                                               ; preds = %59, %56
  store i32 0, ptr %13, align 4
  br label %65

65:                                               ; preds = %64, %17
  call void @llvm.lifetime.end.p0(i64 4, ptr %12) #5
  call void @llvm.lifetime.end.p0(i64 4, ptr %11) #5
  %66 = load i32, ptr %13, align 4
  switch i32 %66, label %68 [
    i32 0, label %67
    i32 1, label %67
  ]

67:                                               ; preds = %65, %65
  ret void

68:                                               ; preds = %65
  unreachable
}