; Function Attrs: null_pointer_is_valid sspstrong uwtable
define internal void @dissect_r3_upstreammfgfield_adcs(ptr noundef %0, i32 noundef %1, i32 %2, ptr noundef %3, ptr noundef %4) #0 {
  %.not = icmp eq ptr %4, null
  br i1 %.not, label %._crit_edge.thread, label %6

6:                                                ; preds = %5
  %7 = icmp eq i32 %1, 0
  br i1 %7, label %9, label %8

8:                                                ; preds = %6
  tail call void (ptr, ...) @proto_report_dissector_bug(ptr noundef nonnull @.str.1860, ptr noundef nonnull @.str.1861, i32 noundef 4245, ptr noundef nonnull @.str.1862) #6
  unreachable

9:                                                ; preds = %6
  %10 = tail call i32 @tvb_reported_length(ptr noundef %0)
  %.not18 = icmp eq i32 %10, 0
  br i1 %.not18, label %._crit_edge.thread, label %.lr.ph.preheader

.lr.ph.preheader:                                 ; preds = %9
  %11 = tail call i32 @llvm.umin.i32(i32 %10, i32 8)
  %wide.trip.count = zext nneg i32 %11 to i64
  br label %.lr.ph

.lr.ph:                                           ; preds = %.lr.ph.preheader, %.lr.ph
  %indvars.iv = phi i64 [ 0, %.lr.ph.preheader ], [ %indvars.iv.next, %.lr.ph ]
  %12 = getelementptr [8 x i32], ptr @hf_r3_adc, i64 0, i64 %indvars.iv
  %13 = load i32, ptr %12, align 4
  %14 = trunc nuw nsw i64 %indvars.iv to i32
  %15 = tail call ptr @proto_tree_add_item(ptr noundef nonnull %4, i32 noundef %13, ptr noundef %0, i32 noundef %14, i32 noundef 1, i32 noundef -2147483648)
  %16 = tail call zeroext i8 @tvb_get_uint8(ptr noundef %0, i32 noundef %14)
  %17 = uitofp i8 %16 to double
  %18 = fmul double %17, 4.154000e-02
  tail call void (ptr, ptr, ...) @proto_item_append_text(ptr noundef %15, ptr noundef nonnull @.str.2031, double noundef %18)
  %indvars.iv.next = add nuw nsw i64 %indvars.iv, 1
  %exitcond.not = icmp eq i64 %indvars.iv.next, %wide.trip.count
  br i1 %exitcond.not, label %._crit_edge, label %.lr.ph, !llvm.loop !19

._crit_edge:                                      ; preds = %.lr.ph
  %19 = icmp ugt i32 %10, 8
  br i1 %19, label %20, label %._crit_edge.thread

20:                                               ; preds = %._crit_edge
  %21 = tail call ptr @proto_tree_get_parent(ptr noundef nonnull %4)
  %22 = tail call ptr @expert_add_info(ptr noundef %3, ptr noundef %21, ptr noundef nonnull @ei_r3_mfgfield_too_many_adc_values)
  br label %._crit_edge.thread

._crit_edge.thread:                               ; preds = %9, %._crit_edge, %20, %5
  ret void
}